target datalayout = "e-m:e-p270:32:32-p271:32:32-p272:64:64-i64:64-i128:128-f80:128-n8:16:32:64-S128"
target triple = "x86_64-pc-linux-gnu"

%struct.GraphLockableMainloop = type {}

@.str = private unnamed_addr constant [22 x i8] c"qemu_in_main_thread()\00", align 1
@.str.1 = private unnamed_addr constant [19 x i8] c"../qemu/blockdev.c\00", align 1
@.str.123 = private unnamed_addr constant [40 x i8] c"Failed to find node with node-name='%s'\00", align 1
@__PRETTY_FUNCTION__.qmp_blockdev_set_active = private unnamed_addr constant [60 x i8] c"void qmp_blockdev_set_active(const char *, _Bool, Error **)\00", align 1
@__func__.qmp_blockdev_set_active = private unnamed_addr constant [24 x i8] c"qmp_blockdev_set_active\00", align 1
@.str.127 = private unnamed_addr constant [31 x i8] c"Failed to inactivate all nodes\00", align 1

; Function Attrs: inlinehint nounwind sspstrong uwtable
define internal void @graph_lockable_auto_unlock_mainloop(ptr noundef %0) #5 {
  %2 = alloca ptr, align 8
  store ptr %0, ptr %2, align 8
  call void @bdrv_graph_rdunlock_main_loop()
  ret void
}

; Function Attrs: inlinehint nounwind sspstrong uwtable
define internal void @glib_autoptr_clear_GraphLockableMainloop(ptr noundef %0) #5 {
  %2 = alloca ptr, align 8
  store ptr %0, ptr %2, align 8
  %3 = load ptr, ptr %2, align 8
  %4 = icmp ne ptr %3, null
  br i1 %4, label %5, label %7

5:                                                ; preds = %1
  %6 = load ptr, ptr %2, align 8
  call void @graph_lockable_auto_unlock_mainloop(ptr noundef %6)
  br label %7

7:                                                ; preds = %5, %1
  ret void
}

; Function Attrs: inlinehint nounwind sspstrong uwtable
define internal void @glib_autoptr_cleanup_GraphLockableMainloop(ptr noundef %0) #5 {
  %2 = alloca ptr, align 8
  store ptr %0, ptr %2, align 8
  %3 = load ptr, ptr %2, align 8
  %4 = load ptr, ptr %3, align 8
  call void @glib_autoptr_clear_GraphLockableMainloop(ptr noundef %4)
  ret void
}

; Function Attrs: inlinehint nounwind sspstrong uwtable
define internal ptr @graph_lockable_auto_lock_mainloop(ptr noundef %0) #5 {
  %2 = alloca ptr, align 8
  store ptr %0, ptr %2, align 8
  call void @bdrv_graph_rdlock_main_loop()
  %3 = load ptr, ptr %2, align 8
  ret ptr %3
}

; Function Attrs: nounwind sspstrong uwtable
define dso_local void @qmp_blockdev_set_active(ptr noundef %0, i1 noundef zeroext %1, ptr noundef %2) #0 {
  %4 = alloca ptr, align 8
  %5 = alloca i8, align 1
  %6 = alloca ptr, align 8
  %7 = alloca i32, align 4
  %8 = alloca ptr, align 8
  %9 = alloca %struct.GraphLockableMainloop, align 1
  %10 = alloca ptr, align 8
  %11 = alloca i32, align 4
  store ptr %0, ptr %4, align 8
  %12 = zext i1 %1 to i8
  store i8 %12, ptr %5, align 1
  store ptr %2, ptr %6, align 8
  call void @llvm.lifetime.start.p0(i64 4, ptr %7) #16
  store i32 0, ptr %7, align 4, !annotation !4
  br label %13

13:                                               ; preds = %3
  %14 = call zeroext i1 @qemu_in_main_thread()
  br i1 %14, label %15, label %16

15:                                               ; preds = %13
  br label %17

16:                                               ; preds = %13
  call void @__assert_fail(ptr noundef @.str, ptr noundef @.str.1, i32 noundef 3478, ptr noundef @__PRETTY_FUNCTION__.qmp_blockdev_set_active) #15
  unreachable

17:                                               ; preds = %15
  br label %18

18:                                               ; preds = %17
  br label %19

19:                                               ; preds = %18
  call void @llvm.lifetime.start.p0(i64 8, ptr %8) #16
  %20 = call ptr @graph_lockable_auto_lock_mainloop(ptr noundef %9)
  store ptr %20, ptr %8, align 8
  %21 = load ptr, ptr %4, align 8
  %22 = icmp ne ptr %21, null
  br i1 %22, label %38, label %23

23:                                               ; preds = %19
  %24 = load i8, ptr %5, align 1, !range !7, !noundef !8
  %25 = trunc i8 %24 to i1
  br i1 %25, label %26, label %28

26:                                               ; preds = %23
  %27 = load ptr, ptr %6, align 8
  call void @bdrv_activate_all(ptr noundef %27)
  br label %37

28:                                               ; preds = %23
  %29 = call i32 @bdrv_inactivate_all()
  store i32 %29, ptr %7, align 4
  %30 = load i32, ptr %7, align 4
  %31 = icmp slt i32 %30, 0
  br i1 %31, label %32, label %36

32:                                               ; preds = %28
  %33 = load ptr, ptr %6, align 8
  %34 = load i32, ptr %7, align 4
  %35 = sub i32 0, %34
  call void (ptr, ptr, i32, ptr, i32, ptr, ...) @error_setg_errno_internal(ptr noundef %33, ptr noundef @.str.1, i32 noundef 3487, ptr noundef @__func__.qmp_blockdev_set_active, i32 noundef %35, ptr noundef @.str.127)
  br label %36

36:                                               ; preds = %32, %28
  br label %37

37:                                               ; preds = %36, %26
  br label %61

38:                                               ; preds = %19
  call void @llvm.lifetime.start.p0(i64 8, ptr %10) #16
  %39 = load ptr, ptr %4, align 8
  %40 = call ptr @bdrv_find_node(ptr noundef %39)
  store ptr %40, ptr %10, align 8
  %41 = load ptr, ptr %10, align 8
  %42 = icmp ne ptr %41, null
  br i1 %42, label %46, label %43

43:                                               ; preds = %38
  %44 = load ptr, ptr %6, align 8
  %45 = load ptr, ptr %4, align 8
  call void (ptr, ptr, i32, ptr, ptr, ...) @error_setg_internal(ptr noundef %44, ptr noundef @.str.1, i32 noundef 3494, ptr noundef @__func__.qmp_blockdev_set_active, ptr noundef @.str.123, ptr noundef %45)
  store i32 1, ptr %11, align 4
  br label %58

46:                                               ; preds = %38
  %47 = load i8, ptr %5, align 1, !range !7, !noundef !8
  %48 = trunc i8 %47 to i1
  br i1 %48, label %49, label %53

49:                                               ; preds = %46
  %50 = load ptr, ptr %10, align 8
  %51 = load ptr, ptr %6, align 8
  %52 = call i32 @bdrv_activate(ptr noundef %50, ptr noundef %51)
  br label %57

53:                                               ; preds = %46
  %54 = load ptr, ptr %10, align 8
  %55 = load ptr, ptr %6, align 8
  %56 = call i32 @bdrv_inactivate(ptr noundef %54, ptr noundef %55)
  br label %57

57:                                               ; preds = %53, %49
  store i32 0, ptr %11, align 4
  br label %58

58:                                               ; preds = %57, %43
  call void @llvm.lifetime.end.p0(i64 8, ptr %10) #16
  %59 = load i32, ptr %11, align 4
  switch i32 %59, label %62 [
    i32 0, label %60
  ]

60:                                               ; preds = %58
  br label %61

61:                                               ; preds = %60, %37
  store i32 0, ptr %11, align 4
  br label %62

62:                                               ; preds = %61, %58
  call void @glib_autoptr_cleanup_GraphLockableMainloop(ptr noundef %8)
  call void @llvm.lifetime.end.p0(i64 8, ptr %8) #16
  call void @llvm.lifetime.end.p0(i64 4, ptr %7) #16
  %63 = load i32, ptr %11, align 4
  switch i32 %63, label %65 [
    i32 0, label %64
    i32 1, label %64
  ]

64:                                               ; preds = %62, %62
  ret void

65:                                               ; preds = %62
  unreachable
}