; Function Attrs: nounwind sspstrong uwtable
define dso_local void @qmp_blockdev_set_active(ptr noundef %0, i1 noundef zeroext %1, ptr noundef %2) local_unnamed_addr #0 {
  %4 = tail call zeroext i1 @qemu_in_main_thread() #14
  br i1 %4, label %6, label %5

5:                                                ; preds = %3
  tail call void @__assert_fail(ptr noundef nonnull @.str, ptr noundef nonnull @.str.1, i32 noundef 3478, ptr noundef nonnull @__PRETTY_FUNCTION__.qmp_blockdev_set_active) #15
  unreachable

6:                                                ; preds = %3
  tail call void @bdrv_graph_rdlock_main_loop() #14
  %.not = icmp eq ptr %0, null
  br i1 %.not, label %7, label %14

7:                                                ; preds = %6
  br i1 %1, label %8, label %9

8:                                                ; preds = %7
  tail call void @bdrv_activate_all(ptr noundef %2) #14
  br label %glib_autoptr_cleanup_GraphLockableMainloop.exit

9:                                                ; preds = %7
  %10 = tail call i32 @bdrv_inactivate_all() #14
  %11 = icmp slt i32 %10, 0
  br i1 %11, label %12, label %glib_autoptr_cleanup_GraphLockableMainloop.exit

12:                                               ; preds = %9
  %13 = sub i32 0, %10
  tail call void (ptr, ptr, i32, ptr, i32, ptr, ...) @error_setg_errno_internal(ptr noundef %2, ptr noundef nonnull @.str.1, i32 noundef 3487, ptr noundef nonnull @__func__.qmp_blockdev_set_active, i32 noundef %13, ptr noundef nonnull @.str.127) #14
  br label %glib_autoptr_cleanup_GraphLockableMainloop.exit

14:                                               ; preds = %6
  %15 = tail call ptr @bdrv_find_node(ptr noundef nonnull %0) #14
  %.not18.not = icmp eq ptr %15, null
  br i1 %.not18.not, label %16, label %17

16:                                               ; preds = %14
  tail call void (ptr, ptr, i32, ptr, ptr, ...) @error_setg_internal(ptr noundef %2, ptr noundef nonnull @.str.1, i32 noundef 3494, ptr noundef nonnull @__func__.qmp_blockdev_set_active, ptr noundef nonnull @.str.123, ptr noundef nonnull %0) #14
  br label %glib_autoptr_cleanup_GraphLockableMainloop.exit

17:                                               ; preds = %14
  br i1 %1, label %18, label %20

18:                                               ; preds = %17
  %19 = tail call i32 @bdrv_activate(ptr noundef nonnull %15, ptr noundef %2) #14
  br label %glib_autoptr_cleanup_GraphLockableMainloop.exit

20:                                               ; preds = %17
  %21 = tail call i32 @bdrv_inactivate(ptr noundef nonnull %15, ptr noundef %2) #14
  br label %glib_autoptr_cleanup_GraphLockableMainloop.exit

glib_autoptr_cleanup_GraphLockableMainloop.exit:  ; preds = %16, %20, %18, %9, %12, %8
  tail call void @bdrv_graph_rdunlock_main_loop() #14
  ret void
}